target datalayout = "e-m:e-p270:32:32-p271:32:32-p272:64:64-i64:64-i128:128-f80:128-n8:16:32:64-S128"
target triple = "x86_64-pc-linux-gnu"

%struct._typeobject = type { %struct.PyVarObject, ptr, i64, i64, ptr, i64, ptr, ptr, ptr, ptr, ptr, ptr, ptr, ptr, ptr, ptr, ptr, ptr, ptr, i64, ptr, ptr, ptr, ptr, i64, ptr, ptr, ptr, ptr, ptr, ptr, ptr, ptr, ptr, i64, ptr, ptr, ptr, ptr, ptr, ptr, ptr, ptr, ptr, ptr, ptr, i32, ptr, ptr, i8, i16 }
%struct.PyVarObject = type { %struct._object, i64 }
%struct._object = type { %union.anon, ptr }
%union.anon = type { i64 }
%struct.PyTupleObject = type { %struct.PyVarObject, [1 x ptr] }
%struct.mapobject = type { %struct._object, ptr, ptr, i32 }
%struct.anon = type { i32, i32 }

@map_new.kwlist = internal global [2 x ptr] [ptr @.str.43, ptr null], align 16
@.str.44 = private unnamed_addr constant [8 x i8] c"|$p:map\00", align 1
@PyExc_TypeError = external global ptr, align 8
@.str.45 = private unnamed_addr constant [40 x i8] c"map() must have at least two arguments.\00", align 1

; Function Attrs: alwaysinline nounwind uwtable
define internal void @Py_INCREF(ptr noundef %0) #3 {
  %2 = alloca ptr, align 8
  %3 = alloca i32, align 4
  %4 = alloca i32, align 4
  store ptr %0, ptr %2, align 8, !tbaa !4
  call void @llvm.lifetime.start.p0(i64 4, ptr %3) #9
  %5 = load ptr, ptr %2, align 8, !tbaa !4
  %6 = getelementptr inbounds nuw %struct._object, ptr %5, i32 0, i32 0
  %7 = getelementptr inbounds nuw %struct.anon, ptr %6, i32 0, i32 0
  %8 = load i32, ptr %7, align 8, !tbaa !74
  store i32 %8, ptr %3, align 4, !tbaa !38
  %9 = load i32, ptr %3, align 4, !tbaa !38
  %10 = icmp slt i32 %9, 0
  br i1 %10, label %11, label %12

11:                                               ; preds = %1
  store i32 1, ptr %4, align 4
  br label %18

12:                                               ; preds = %1
  %13 = load i32, ptr %3, align 4, !tbaa !38
  %14 = add i32 %13, 1
  %15 = load ptr, ptr %2, align 8, !tbaa !4
  %16 = getelementptr inbounds nuw %struct._object, ptr %15, i32 0, i32 0
  %17 = getelementptr inbounds nuw %struct.anon, ptr %16, i32 0, i32 0
  store i32 %14, ptr %17, align 8, !tbaa !74
  store i32 0, ptr %4, align 4
  br label %18

18:                                               ; preds = %12, %11
  call void @llvm.lifetime.end.p0(i64 4, ptr %3) #9
  %19 = load i32, ptr %4, align 4
  switch i32 %19, label %21 [
    i32 0, label %20
    i32 1, label %20
  ]

20:                                               ; preds = %18, %18
  ret void

21:                                               ; preds = %18
  unreachable
}

; Function Attrs: alwaysinline nounwind uwtable
define internal i32 @_Py_IsImmortal(ptr noundef %0) #3 {
  %2 = alloca ptr, align 8
  store ptr %0, ptr %2, align 8, !tbaa !4
  %3 = load ptr, ptr %2, align 8, !tbaa !4
  %4 = getelementptr inbounds nuw %struct._object, ptr %3, i32 0, i32 0
  %5 = getelementptr inbounds nuw %struct.anon, ptr %4, i32 0, i32 0
  %6 = load i32, ptr %5, align 8, !tbaa !74
  %7 = icmp slt i32 %6, 0
  %8 = zext i1 %7 to i32
  ret i32 %8
}

; Function Attrs: inlinehint nounwind uwtable
define internal ptr @_Py_NewRef(ptr noundef %0) #4 {
  %2 = alloca ptr, align 8
  store ptr %0, ptr %2, align 8, !tbaa !4
  %3 = load ptr, ptr %2, align 8, !tbaa !4
  call void @Py_INCREF(ptr noundef %3)
  %4 = load ptr, ptr %2, align 8, !tbaa !4
  ret ptr %4
}

; Function Attrs: inlinehint nounwind uwtable
define internal void @PyTuple_SET_ITEM(ptr noundef %0, i64 noundef %1, ptr noundef %2) #4 {
  %4 = alloca ptr, align 8
  %5 = alloca i64, align 8
  %6 = alloca ptr, align 8
  %7 = alloca ptr, align 8
  store ptr %0, ptr %4, align 8, !tbaa !4
  store i64 %1, ptr %5, align 8, !tbaa !40
  store ptr %2, ptr %6, align 8, !tbaa !4
  call void @llvm.lifetime.start.p0(i64 8, ptr %7) #9
  %8 = load ptr, ptr %4, align 8, !tbaa !4
  store ptr %8, ptr %7, align 8, !tbaa !9
  %9 = load ptr, ptr %6, align 8, !tbaa !4
  %10 = load ptr, ptr %7, align 8, !tbaa !9
  %11 = getelementptr inbounds nuw %struct.PyTupleObject, ptr %10, i32 0, i32 1
  %12 = load i64, ptr %5, align 8, !tbaa !40
  %13 = getelementptr [1 x ptr], ptr %11, i64 0, i64 %12
  store ptr %9, ptr %13, align 8, !tbaa !4
  call void @llvm.lifetime.end.p0(i64 8, ptr %7) #9
  ret void
}

; Function Attrs: alwaysinline nounwind uwtable
define internal void @Py_DECREF(ptr noundef %0) #3 {
  %2 = alloca ptr, align 8
  store ptr %0, ptr %2, align 8, !tbaa !4
  %3 = load ptr, ptr %2, align 8, !tbaa !4
  %4 = call i32 @_Py_IsImmortal(ptr noundef %3)
  %5 = icmp ne i32 %4, 0
  br i1 %5, label %6, label %7

6:                                                ; preds = %1
  br label %16

7:                                                ; preds = %1
  %8 = load ptr, ptr %2, align 8, !tbaa !4
  %9 = getelementptr inbounds nuw %struct._object, ptr %8, i32 0, i32 0
  %10 = getelementptr inbounds nuw %struct.anon, ptr %9, i32 0, i32 0
  %11 = load i32, ptr %10, align 8, !tbaa !74
  %12 = add i32 %11, -1
  store i32 %12, ptr %10, align 8, !tbaa !74
  %13 = icmp eq i32 %12, 0
  br i1 %13, label %14, label %16

14:                                               ; preds = %7
  %15 = load ptr, ptr %2, align 8, !tbaa !4
  call void @_Py_Dealloc(ptr noundef %15)
  br label %16

16:                                               ; preds = %6, %14, %7
  ret void
}

; Function Attrs: nounwind uwtable
define internal ptr @map_new(ptr noundef %0, ptr noundef %1, ptr noundef %2) #0 {
  %4 = alloca ptr, align 8
  %5 = alloca ptr, align 8
  %6 = alloca ptr, align 8
  %7 = alloca ptr, align 8
  %8 = alloca ptr, align 8
  %9 = alloca ptr, align 8
  %10 = alloca ptr, align 8
  %11 = alloca ptr, align 8
  %12 = alloca i64, align 8
  %13 = alloca i64, align 8
  %14 = alloca i32, align 4
  %15 = alloca ptr, align 8
  %16 = alloca i32, align 4
  %17 = alloca i32, align 4
  store ptr %0, ptr %5, align 8, !tbaa !41
  store ptr %1, ptr %6, align 8, !tbaa !4
  store ptr %2, ptr %7, align 8, !tbaa !4
  call void @llvm.lifetime.start.p0(i64 8, ptr %8) #9
  call void @llvm.lifetime.start.p0(i64 8, ptr %9) #9
  call void @llvm.lifetime.start.p0(i64 8, ptr %10) #9
  call void @llvm.lifetime.start.p0(i64 8, ptr %11) #9
  call void @llvm.lifetime.start.p0(i64 8, ptr %12) #9
  call void @llvm.lifetime.start.p0(i64 8, ptr %13) #9
  call void @llvm.lifetime.start.p0(i64 4, ptr %14) #9
  store i32 0, ptr %14, align 4, !tbaa !38
  %18 = load ptr, ptr %7, align 8, !tbaa !4
  %19 = icmp ne ptr %18, null
  br i1 %19, label %20, label %38

20:                                               ; preds = %3
  call void @llvm.lifetime.start.p0(i64 8, ptr %15) #9
  %21 = call ptr @PyTuple_New(i64 noundef 0)
  store ptr %21, ptr %15, align 8, !tbaa !4
  %22 = load ptr, ptr %15, align 8, !tbaa !4
  %23 = icmp eq ptr %22, null
  br i1 %23, label %24, label %25

24:                                               ; preds = %20
  store ptr null, ptr %4, align 8
  store i32 1, ptr %16, align 4
  br label %35

25:                                               ; preds = %20
  call void @llvm.lifetime.start.p0(i64 4, ptr %17) #9
  %26 = load ptr, ptr %15, align 8, !tbaa !4
  %27 = load ptr, ptr %7, align 8, !tbaa !4
  %28 = call i32 (ptr, ptr, ptr, ptr, ...) @PyArg_ParseTupleAndKeywords(ptr noundef %26, ptr noundef %27, ptr noundef @.str.44, ptr noundef @map_new.kwlist, ptr noundef %14)
  store i32 %28, ptr %17, align 4, !tbaa !38
  %29 = load ptr, ptr %15, align 8, !tbaa !4
  call void @Py_DECREF(ptr noundef %29)
  %30 = load i32, ptr %17, align 4, !tbaa !38
  %31 = icmp ne i32 %30, 0
  br i1 %31, label %33, label %32

32:                                               ; preds = %25
  store ptr null, ptr %4, align 8
  store i32 1, ptr %16, align 4
  br label %34

33:                                               ; preds = %25
  store i32 0, ptr %16, align 4
  br label %34

34:                                               ; preds = %33, %32
  call void @llvm.lifetime.end.p0(i64 4, ptr %17) #9
  br label %35

35:                                               ; preds = %34, %24
  call void @llvm.lifetime.end.p0(i64 8, ptr %15) #9
  %36 = load i32, ptr %16, align 4
  switch i32 %36, label %102 [
    i32 0, label %37
  ]

37:                                               ; preds = %35
  br label %38

38:                                               ; preds = %37, %3
  %39 = load ptr, ptr %6, align 8, !tbaa !4
  %40 = call i64 @PyTuple_Size(ptr noundef %39)
  store i64 %40, ptr %12, align 8, !tbaa !40
  %41 = load i64, ptr %12, align 8, !tbaa !40
  %42 = icmp slt i64 %41, 2
  br i1 %42, label %43, label %45

43:                                               ; preds = %38
  %44 = load ptr, ptr @PyExc_TypeError, align 8, !tbaa !4
  call void @PyErr_SetString(ptr noundef %44, ptr noundef @.str.45)
  store ptr null, ptr %4, align 8
  store i32 1, ptr %16, align 4
  br label %102

45:                                               ; preds = %38
  %46 = load i64, ptr %12, align 8, !tbaa !40
  %47 = sub i64 %46, 1
  %48 = call ptr @PyTuple_New(i64 noundef %47)
  store ptr %48, ptr %9, align 8, !tbaa !4
  %49 = load ptr, ptr %9, align 8, !tbaa !4
  %50 = icmp eq ptr %49, null
  br i1 %50, label %51, label %52

51:                                               ; preds = %45
  store ptr null, ptr %4, align 8
  store i32 1, ptr %16, align 4
  br label %102

52:                                               ; preds = %45
  store i64 1, ptr %13, align 8, !tbaa !40
  br label %53

53:                                               ; preds = %73, %52
  %54 = load i64, ptr %13, align 8, !tbaa !40
  %55 = load i64, ptr %12, align 8, !tbaa !40
  %56 = icmp slt i64 %54, %55
  br i1 %56, label %57, label %76

57:                                               ; preds = %53
  %58 = load ptr, ptr %6, align 8, !tbaa !4
  %59 = getelementptr inbounds nuw %struct.PyTupleObject, ptr %58, i32 0, i32 1
  %60 = load i64, ptr %13, align 8, !tbaa !40
  %61 = getelementptr [1 x ptr], ptr %59, i64 0, i64 %60
  %62 = load ptr, ptr %61, align 8, !tbaa !4
  %63 = call ptr @PyObject_GetIter(ptr noundef %62)
  store ptr %63, ptr %8, align 8, !tbaa !4
  %64 = load ptr, ptr %8, align 8, !tbaa !4
  %65 = icmp eq ptr %64, null
  br i1 %65, label %66, label %68

66:                                               ; preds = %57
  %67 = load ptr, ptr %9, align 8, !tbaa !4
  call void @Py_DECREF(ptr noundef %67)
  store ptr null, ptr %4, align 8
  store i32 1, ptr %16, align 4
  br label %102

68:                                               ; preds = %57
  %69 = load ptr, ptr %9, align 8, !tbaa !4
  %70 = load i64, ptr %13, align 8, !tbaa !40
  %71 = sub i64 %70, 1
  %72 = load ptr, ptr %8, align 8, !tbaa !4
  call void @PyTuple_SET_ITEM(ptr noundef %69, i64 noundef %71, ptr noundef %72)
  br label %73

73:                                               ; preds = %68
  %74 = load i64, ptr %13, align 8, !tbaa !40
  %75 = add i64 %74, 1
  store i64 %75, ptr %13, align 8, !tbaa !40
  br label %53, !llvm.loop !54

76:                                               ; preds = %53
  %77 = load ptr, ptr %5, align 8, !tbaa !41
  %78 = getelementptr inbounds nuw %struct._typeobject, ptr %77, i32 0, i32 36
  %79 = load ptr, ptr %78, align 8, !tbaa !43
  %80 = load ptr, ptr %5, align 8, !tbaa !41
  %81 = call ptr %79(ptr noundef %80, i64 noundef 0)
  store ptr %81, ptr %11, align 8, !tbaa !9
  %82 = load ptr, ptr %11, align 8, !tbaa !9
  %83 = icmp eq ptr %82, null
  br i1 %83, label %84, label %86

84:                                               ; preds = %76
  %85 = load ptr, ptr %9, align 8, !tbaa !4
  call void @Py_DECREF(ptr noundef %85)
  store ptr null, ptr %4, align 8
  store i32 1, ptr %16, align 4
  br label %102

86:                                               ; preds = %76
  %87 = load ptr, ptr %9, align 8, !tbaa !4
  %88 = load ptr, ptr %11, align 8, !tbaa !9
  %89 = getelementptr inbounds nuw %struct.mapobject, ptr %88, i32 0, i32 1
  store ptr %87, ptr %89, align 8, !tbaa !45
  %90 = load ptr, ptr %6, align 8, !tbaa !4
  %91 = getelementptr inbounds nuw %struct.PyTupleObject, ptr %90, i32 0, i32 1
  %92 = getelementptr [1 x ptr], ptr %91, i64 0, i64 0
  %93 = load ptr, ptr %92, align 8, !tbaa !4
  store ptr %93, ptr %10, align 8, !tbaa !4
  %94 = load ptr, ptr %10, align 8, !tbaa !4
  %95 = call ptr @_Py_NewRef(ptr noundef %94)
  %96 = load ptr, ptr %11, align 8, !tbaa !9
  %97 = getelementptr inbounds nuw %struct.mapobject, ptr %96, i32 0, i32 2
  store ptr %95, ptr %97, align 8, !tbaa !47
  %98 = load i32, ptr %14, align 4, !tbaa !38
  %99 = load ptr, ptr %11, align 8, !tbaa !9
  %100 = getelementptr inbounds nuw %struct.mapobject, ptr %99, i32 0, i32 3
  store i32 %98, ptr %100, align 8, !tbaa !48
  %101 = load ptr, ptr %11, align 8, !tbaa !9
  store ptr %101, ptr %4, align 8
  store i32 1, ptr %16, align 4
  br label %102

102:                                              ; preds = %86, %84, %66, %51, %43, %35
  call void @llvm.lifetime.end.p0(i64 4, ptr %14) #9
  call void @llvm.lifetime.end.p0(i64 8, ptr %13) #9
  call void @llvm.lifetime.end.p0(i64 8, ptr %12) #9
  call void @llvm.lifetime.end.p0(i64 8, ptr %11) #9
  call void @llvm.lifetime.end.p0(i64 8, ptr %10) #9
  call void @llvm.lifetime.end.p0(i64 8, ptr %9) #9
  call void @llvm.lifetime.end.p0(i64 8, ptr %8) #9
  %103 = load ptr, ptr %4, align 8
  ret ptr %103
}