; Function Attrs: nounwind uwtable
define internal ptr @map_new(ptr noundef %0, ptr noundef %1, ptr noundef %2) #0 {
  %4 = alloca i32, align 4
  call void @llvm.lifetime.start.p0(i64 4, ptr nonnull %4) #9
  store i32 0, ptr %4, align 4, !tbaa !53
  %.not = icmp eq ptr %2, null
  br i1 %.not, label %15, label %5

5:                                                ; preds = %3
  %6 = tail call ptr @PyTuple_New(i64 noundef 0) #9
  %7 = icmp eq ptr %6, null
  br i1 %7, label %.critedge, label %8

8:                                                ; preds = %5
  %9 = call i32 (ptr, ptr, ptr, ptr, ...) @PyArg_ParseTupleAndKeywords(ptr noundef nonnull %6, ptr noundef nonnull %2, ptr noundef nonnull @.str.44, ptr noundef nonnull @map_new.kwlist, ptr noundef nonnull %4) #9
  %10 = load i32, ptr %6, align 8, !tbaa !33
  %.not.i = icmp sgt i32 %10, -1
  br i1 %.not.i, label %11, label %Py_DECREF.exit

11:                                               ; preds = %8
  %12 = add nsw i32 %10, -1
  store i32 %12, ptr %6, align 8, !tbaa !33
  %13 = icmp eq i32 %12, 0
  br i1 %13, label %14, label %Py_DECREF.exit

14:                                               ; preds = %11
  call void @_Py_Dealloc(ptr noundef nonnull %6) #9
  br label %Py_DECREF.exit

Py_DECREF.exit:                                   ; preds = %8, %11, %14
  %.not40.not = icmp eq i32 %9, 0
  br i1 %.not40.not, label %.critedge, label %15

15:                                               ; preds = %Py_DECREF.exit, %3
  %16 = call i64 @PyTuple_Size(ptr noundef %1) #9
  %17 = icmp slt i64 %16, 2
  br i1 %17, label %18, label %20

18:                                               ; preds = %15
  %19 = load ptr, ptr @PyExc_TypeError, align 8, !tbaa !39
  call void @PyErr_SetString(ptr noundef %19, ptr noundef nonnull @.str.45) #9
  br label %.critedge

20:                                               ; preds = %15
  %21 = add nsw i64 %16, -1
  %22 = call ptr @PyTuple_New(i64 noundef %21) #9
  %23 = icmp eq ptr %22, null
  br i1 %23, label %.critedge, label %.lr.ph

.lr.ph:                                           ; preds = %20
  %24 = getelementptr inbounds nuw i8, ptr %1, i64 24
  %25 = getelementptr inbounds nuw i8, ptr %22, i64 24
  br label %26

26:                                               ; preds = %.lr.ph, %37
  %.03447 = phi i64 [ 1, %.lr.ph ], [ %40, %37 ]
  %27 = getelementptr [1 x ptr], ptr %24, i64 0, i64 %.03447
  %28 = load ptr, ptr %27, align 8, !tbaa !39
  %29 = call ptr @PyObject_GetIter(ptr noundef %28) #9
  %30 = icmp eq ptr %29, null
  br i1 %30, label %31, label %37

31:                                               ; preds = %26
  %32 = load i32, ptr %22, align 8, !tbaa !33
  %.not.i41 = icmp sgt i32 %32, -1
  br i1 %.not.i41, label %33, label %.critedge

33:                                               ; preds = %31
  %34 = add nsw i32 %32, -1
  store i32 %34, ptr %22, align 8, !tbaa !33
  %35 = icmp eq i32 %34, 0
  br i1 %35, label %36, label %.critedge

36:                                               ; preds = %33
  call void @_Py_Dealloc(ptr noundef nonnull %22) #9
  br label %.critedge

37:                                               ; preds = %26
  %38 = add nsw i64 %.03447, -1
  %39 = getelementptr [1 x ptr], ptr %25, i64 0, i64 %38
  store ptr %29, ptr %39, align 8, !tbaa !39
  %40 = add nuw nsw i64 %.03447, 1
  %exitcond.not = icmp eq i64 %40, %16
  br i1 %exitcond.not, label %._crit_edge, label %26, !llvm.loop !54

._crit_edge:                                      ; preds = %37
  %41 = getelementptr inbounds nuw i8, ptr %0, i64 304
  %42 = load ptr, ptr %41, align 8, !tbaa !40
  %43 = call ptr %42(ptr noundef %0, i64 noundef 0) #9
  %44 = icmp eq ptr %43, null
  br i1 %44, label %45, label %51

45:                                               ; preds = %._crit_edge
  %46 = load i32, ptr %22, align 8, !tbaa !33
  %.not.i43 = icmp sgt i32 %46, -1
  br i1 %.not.i43, label %47, label %.critedge

47:                                               ; preds = %45
  %48 = add nsw i32 %46, -1
  store i32 %48, ptr %22, align 8, !tbaa !33
  %49 = icmp eq i32 %48, 0
  br i1 %49, label %50, label %.critedge

50:                                               ; preds = %47
  call void @_Py_Dealloc(ptr noundef nonnull %22) #9
  br label %.critedge

51:                                               ; preds = %._crit_edge
  %52 = getelementptr inbounds nuw i8, ptr %43, i64 16
  store ptr %22, ptr %52, align 8, !tbaa !41
  %53 = getelementptr inbounds nuw i8, ptr %1, i64 24
  %54 = load ptr, ptr %53, align 8, !tbaa !39
  %55 = load i32, ptr %54, align 8, !tbaa !33
  %56 = icmp slt i32 %55, 0
  br i1 %56, label %_Py_NewRef.exit, label %57

57:                                               ; preds = %51
  %58 = add nuw i32 %55, 1
  store i32 %58, ptr %54, align 8, !tbaa !33
  br label %_Py_NewRef.exit

_Py_NewRef.exit:                                  ; preds = %51, %57
  %59 = getelementptr inbounds nuw i8, ptr %43, i64 24
  store ptr %54, ptr %59, align 8, !tbaa !43
  %60 = load i32, ptr %4, align 4, !tbaa !53
  %61 = getelementptr inbounds nuw i8, ptr %43, i64 32
  store i32 %60, ptr %61, align 8, !tbaa !46
  br label %.critedge

.critedge:                                        ; preds = %50, %47, %45, %36, %33, %31, %5, %20, %Py_DECREF.exit, %_Py_NewRef.exit, %18
  %.2 = phi ptr [ null, %18 ], [ %43, %_Py_NewRef.exit ], [ null, %Py_DECREF.exit ], [ null, %20 ], [ null, %5 ], [ null, %31 ], [ null, %33 ], [ null, %36 ], [ null, %45 ], [ null, %47 ], [ null, %50 ]
  call void @llvm.lifetime.end.p0(i64 4, ptr nonnull %4) #9
  ret ptr %.2
}